EXPORTS
    _Z22__gmp_istream_set_baseRSiRcRbS1_ @1
    _Z24__gmp_istream_set_digitsRNSt7__cxx1112basic_stringIcSt11char_traitsIcESaIcEEERSiRcRbi @2
    _Z26__gmpz_operator_in_nowhiteRSiP12__mpz_structc @3
    _Z28__gmp_doprnt_integer_ostreamRSoP15doprnt_params_tPc @4
    _Z28__gmp_doprnt_params_from_iosP15doprnt_params_tRSt9basic_iosIcSt11char_traitsIcEE @5
    _ZNKSt5ctypeIcE8do_widenEc @6
    _ZNSt14numeric_limitsI10__gmp_exprIA1_12__mpf_structS2_EE10has_denormE @7 DATA
    _ZNSt14numeric_limitsI10__gmp_exprIA1_12__mpf_structS2_EE10is_boundedE @8 DATA
    _ZNSt14numeric_limitsI10__gmp_exprIA1_12__mpf_structS2_EE10is_integerE @9 DATA
    _ZNSt14numeric_limitsI10__gmp_exprIA1_12__mpf_structS2_EE11round_styleE @10 DATA
    _ZNSt14numeric_limitsI10__gmp_exprIA1_12__mpf_structS2_EE12has_infinityE @11 DATA
    _ZNSt14numeric_limitsI10__gmp_exprIA1_12__mpf_structS2_EE12max_digits10E @12 DATA
    _ZNSt14numeric_limitsI10__gmp_exprIA1_12__mpf_structS2_EE12max_exponentE @13 DATA
    _ZNSt14numeric_limitsI10__gmp_exprIA1_12__mpf_structS2_EE12min_exponentE @14 DATA
    _ZNSt14numeric_limitsI10__gmp_exprIA1_12__mpf_structS2_EE13has_quiet_NaNE @15 DATA
    _ZNSt14numeric_limitsI10__gmp_exprIA1_12__mpf_structS2_EE14is_specializedE @16 DATA
    _ZNSt14numeric_limitsI10__gmp_exprIA1_12__mpf_structS2_EE14max_exponent10E @17 DATA
    _ZNSt14numeric_limitsI10__gmp_exprIA1_12__mpf_structS2_EE14min_exponent10E @18 DATA
    _ZNSt14numeric_limitsI10__gmp_exprIA1_12__mpf_structS2_EE15has_denorm_lossE @19 DATA
    _ZNSt14numeric_limitsI10__gmp_exprIA1_12__mpf_structS2_EE15tinyness_beforeE @20 DATA
    _ZNSt14numeric_limitsI10__gmp_exprIA1_12__mpf_structS2_EE17has_signaling_NaNE @21 DATA
    _ZNSt14numeric_limitsI10__gmp_exprIA1_12__mpf_structS2_EE5radixE @22 DATA
    _ZNSt14numeric_limitsI10__gmp_exprIA1_12__mpf_structS2_EE5trapsE @23 DATA
    _ZNSt14numeric_limitsI10__gmp_exprIA1_12__mpf_structS2_EE6digitsE @24 DATA
    _ZNSt14numeric_limitsI10__gmp_exprIA1_12__mpf_structS2_EE8digits10E @25 DATA
    _ZNSt14numeric_limitsI10__gmp_exprIA1_12__mpf_structS2_EE8is_exactE @26 DATA
    _ZNSt14numeric_limitsI10__gmp_exprIA1_12__mpf_structS2_EE9is_iec559E @27 DATA
    _ZNSt14numeric_limitsI10__gmp_exprIA1_12__mpf_structS2_EE9is_moduloE @28 DATA
    _ZNSt14numeric_limitsI10__gmp_exprIA1_12__mpf_structS2_EE9is_signedE @29 DATA
    _ZNSt14numeric_limitsI10__gmp_exprIA1_12__mpq_structS2_EE10has_denormE @30 DATA
    _ZNSt14numeric_limitsI10__gmp_exprIA1_12__mpq_structS2_EE10is_boundedE @31 DATA
    _ZNSt14numeric_limitsI10__gmp_exprIA1_12__mpq_structS2_EE10is_integerE @32 DATA
    _ZNSt14numeric_limitsI10__gmp_exprIA1_12__mpq_structS2_EE11round_styleE @33 DATA
    _ZNSt14numeric_limitsI10__gmp_exprIA1_12__mpq_structS2_EE12has_infinityE @34 DATA
    _ZNSt14numeric_limitsI10__gmp_exprIA1_12__mpq_structS2_EE12max_digits10E @35 DATA
    _ZNSt14numeric_limitsI10__gmp_exprIA1_12__mpq_structS2_EE12max_exponentE @36 DATA
    _ZNSt14numeric_limitsI10__gmp_exprIA1_12__mpq_structS2_EE12min_exponentE @37 DATA
    _ZNSt14numeric_limitsI10__gmp_exprIA1_12__mpq_structS2_EE13has_quiet_NaNE @38 DATA
    _ZNSt14numeric_limitsI10__gmp_exprIA1_12__mpq_structS2_EE14is_specializedE @39 DATA
    _ZNSt14numeric_limitsI10__gmp_exprIA1_12__mpq_structS2_EE14max_exponent10E @40 DATA
    _ZNSt14numeric_limitsI10__gmp_exprIA1_12__mpq_structS2_EE14min_exponent10E @41 DATA
    _ZNSt14numeric_limitsI10__gmp_exprIA1_12__mpq_structS2_EE15has_denorm_lossE @42 DATA
    _ZNSt14numeric_limitsI10__gmp_exprIA1_12__mpq_structS2_EE15tinyness_beforeE @43 DATA
    _ZNSt14numeric_limitsI10__gmp_exprIA1_12__mpq_structS2_EE17has_signaling_NaNE @44 DATA
    _ZNSt14numeric_limitsI10__gmp_exprIA1_12__mpq_structS2_EE5radixE @45 DATA
    _ZNSt14numeric_limitsI10__gmp_exprIA1_12__mpq_structS2_EE5trapsE @46 DATA
    _ZNSt14numeric_limitsI10__gmp_exprIA1_12__mpq_structS2_EE6digitsE @47 DATA
    _ZNSt14numeric_limitsI10__gmp_exprIA1_12__mpq_structS2_EE8digits10E @48 DATA
    _ZNSt14numeric_limitsI10__gmp_exprIA1_12__mpq_structS2_EE8is_exactE @49 DATA
    _ZNSt14numeric_limitsI10__gmp_exprIA1_12__mpq_structS2_EE9is_iec559E @50 DATA
    _ZNSt14numeric_limitsI10__gmp_exprIA1_12__mpq_structS2_EE9is_moduloE @51 DATA
    _ZNSt14numeric_limitsI10__gmp_exprIA1_12__mpq_structS2_EE9is_signedE @52 DATA
    _ZNSt14numeric_limitsI10__gmp_exprIA1_12__mpz_structS2_EE10has_denormE @53 DATA
    _ZNSt14numeric_limitsI10__gmp_exprIA1_12__mpz_structS2_EE10is_boundedE @54 DATA
    _ZNSt14numeric_limitsI10__gmp_exprIA1_12__mpz_structS2_EE10is_integerE @55 DATA
    _ZNSt14numeric_limitsI10__gmp_exprIA1_12__mpz_structS2_EE11round_styleE @56 DATA
    _ZNSt14numeric_limitsI10__gmp_exprIA1_12__mpz_structS2_EE12has_infinityE @57 DATA
    _ZNSt14numeric_limitsI10__gmp_exprIA1_12__mpz_structS2_EE12max_digits10E @58 DATA
    _ZNSt14numeric_limitsI10__gmp_exprIA1_12__mpz_structS2_EE12max_exponentE @59 DATA
    _ZNSt14numeric_limitsI10__gmp_exprIA1_12__mpz_structS2_EE12min_exponentE @60 DATA
    _ZNSt14numeric_limitsI10__gmp_exprIA1_12__mpz_structS2_EE13has_quiet_NaNE @61 DATA
    _ZNSt14numeric_limitsI10__gmp_exprIA1_12__mpz_structS2_EE14is_specializedE @62 DATA
    _ZNSt14numeric_limitsI10__gmp_exprIA1_12__mpz_structS2_EE14max_exponent10E @63 DATA
    _ZNSt14numeric_limitsI10__gmp_exprIA1_12__mpz_structS2_EE14min_exponent10E @64 DATA
    _ZNSt14numeric_limitsI10__gmp_exprIA1_12__mpz_structS2_EE15has_denorm_lossE @65 DATA
    _ZNSt14numeric_limitsI10__gmp_exprIA1_12__mpz_structS2_EE15tinyness_beforeE @66 DATA
    _ZNSt14numeric_limitsI10__gmp_exprIA1_12__mpz_structS2_EE17has_signaling_NaNE @67 DATA
    _ZNSt14numeric_limitsI10__gmp_exprIA1_12__mpz_structS2_EE5radixE @68 DATA
    _ZNSt14numeric_limitsI10__gmp_exprIA1_12__mpz_structS2_EE5trapsE @69 DATA
    _ZNSt14numeric_limitsI10__gmp_exprIA1_12__mpz_structS2_EE6digitsE @70 DATA
    _ZNSt14numeric_limitsI10__gmp_exprIA1_12__mpz_structS2_EE8digits10E @71 DATA
    _ZNSt14numeric_limitsI10__gmp_exprIA1_12__mpz_structS2_EE8is_exactE @72 DATA
    _ZNSt14numeric_limitsI10__gmp_exprIA1_12__mpz_structS2_EE9is_iec559E @73 DATA
    _ZNSt14numeric_limitsI10__gmp_exprIA1_12__mpz_structS2_EE9is_moduloE @74 DATA
    _ZNSt14numeric_limitsI10__gmp_exprIA1_12__mpz_structS2_EE9is_signedE @75 DATA
    _ZlsRSoPK12__mpf_struct @76
    _ZlsRSoPK12__mpq_struct @77
    _ZlsRSoPK12__mpz_struct @78
    _ZrsRSiP12__mpf_struct @79
    _ZrsRSiP12__mpq_struct @80
    _ZrsRSiP12__mpz_struct @81
    __gmp_asprintf_funs_noformat @82 DATA
